target datalayout = "e-m:e-p270:32:32-p271:32:32-p272:64:64-i64:64-i128:128-f80:128-n8:16:32:64-S128"
target triple = "x86_64-pc-linux-gnu"

%struct.prte_process_info_t = type { %struct.pmix_proc, %struct.pmix_proc, ptr, %struct.pmix_proc, i32, i32, i32, ptr, ptr, i32, i8, ptr, i16, ptr, ptr, i8, ptr, i8 }
%struct.pmix_proc = type { [256 x i8], i32 }

@.str = private unnamed_addr constant [37 x i8] c"PRTE ERROR: %s in file %s at line %d\00", align 1
@.str.1 = private unnamed_addr constant [14 x i8] c"session_dir.c\00", align 1
@prte_process_info = external global %struct.prte_process_info_t, align 8
@.str.6 = private unnamed_addr constant [22 x i8] c"help-prte-runtime.txt\00", align 1
@prte_silence_shared_fs = external global i8, align 1
@.str.8 = private unnamed_addr constant [24 x i8] c"prte:session:dir:shared\00", align 1
@prte_tool_basename = external global ptr, align 8

; Function Attrs: nounwind uwtable
define internal i32 @_setup_tmpdir_base() #0 {
  %1 = alloca i32, align 4
  %2 = alloca ptr, align 8
  call void @llvm.lifetime.start.p0(i64 4, ptr %1) #6
  store i32 0, ptr %1, align 4, !tbaa !8
  call void @llvm.lifetime.start.p0(i64 8, ptr %2) #6
  store ptr null, ptr %2, align 8, !tbaa !37
  %3 = load ptr, ptr getelementptr inbounds nuw (%struct.prte_process_info_t, ptr @prte_process_info, i32 0, i32 13), align 8, !tbaa !36
  %4 = icmp eq ptr null, %3
  br i1 %4, label %5, label %12

5:                                                ; preds = %0
  %6 = call ptr @pmix_tmp_directory()
  %7 = call noalias ptr @strdup(ptr noundef %6) #6
  store ptr %7, ptr getelementptr inbounds nuw (%struct.prte_process_info_t, ptr @prte_process_info, i32 0, i32 13), align 8, !tbaa !36
  %8 = load ptr, ptr getelementptr inbounds nuw (%struct.prte_process_info_t, ptr @prte_process_info, i32 0, i32 13), align 8, !tbaa !36
  %9 = icmp eq ptr null, %8
  br i1 %9, label %10, label %11

10:                                               ; preds = %5
  store i32 -2, ptr %1, align 4, !tbaa !8
  br label %32

11:                                               ; preds = %5
  br label %12

12:                                               ; preds = %11, %0
  %13 = load ptr, ptr getelementptr inbounds nuw (%struct.prte_process_info_t, ptr @prte_process_info, i32 0, i32 13), align 8, !tbaa !36
  %14 = call zeroext i1 @pmix_path_nfs(ptr noundef %13, ptr noundef %2)
  %15 = zext i1 %14 to i8
  store i8 %15, ptr getelementptr inbounds nuw (%struct.prte_process_info_t, ptr @prte_process_info, i32 0, i32 17), align 8, !tbaa !50
  %16 = load i8, ptr getelementptr inbounds nuw (%struct.prte_process_info_t, ptr @prte_process_info, i32 0, i32 17), align 8, !tbaa !50, !range !15, !noundef !16
  %17 = trunc i8 %16 to i1
  br i1 %17, label %18, label %26

18:                                               ; preds = %12
  %19 = load i8, ptr @prte_silence_shared_fs, align 1, !tbaa !13, !range !15, !noundef !16
  %20 = trunc i8 %19 to i1
  br i1 %20, label %26, label %21

21:                                               ; preds = %18
  %22 = load ptr, ptr getelementptr inbounds nuw (%struct.prte_process_info_t, ptr @prte_process_info, i32 0, i32 13), align 8, !tbaa !36
  %23 = load ptr, ptr %2, align 8, !tbaa !37
  %24 = load ptr, ptr @prte_tool_basename, align 8, !tbaa !37
  %25 = call i32 (ptr, ptr, i32, ...) @pmix_show_help(ptr noundef @.str.6, ptr noundef @.str.8, i32 noundef 1, ptr noundef %22, ptr noundef %23, ptr noundef %24)
  br label %26

26:                                               ; preds = %21, %18, %12
  %27 = load ptr, ptr %2, align 8, !tbaa !37
  %28 = icmp ne ptr null, %27
  br i1 %28, label %29, label %31

29:                                               ; preds = %26
  %30 = load ptr, ptr %2, align 8, !tbaa !37
  call void @free(ptr noundef %30) #6
  br label %31

31:                                               ; preds = %29, %26
  br label %32

32:                                               ; preds = %31, %10
  %33 = load i32, ptr %1, align 4, !tbaa !8
  %34 = icmp ne i32 0, %33
  br i1 %34, label %35, label %45

35:                                               ; preds = %32
  br label %36

36:                                               ; preds = %35
  %37 = load i32, ptr %1, align 4, !tbaa !8
  %38 = icmp ne i32 -43, %37
  br i1 %38, label %39, label %42

39:                                               ; preds = %36
  %40 = load i32, ptr %1, align 4, !tbaa !8
  %41 = call ptr @prte_strerror(i32 noundef %40)
  call void (i32, ptr, ...) @pmix_output(i32 noundef 0, ptr noundef @.str, ptr noundef %41, ptr noundef @.str.1, i32 noundef 136)
  br label %42

42:                                               ; preds = %39, %36
  br label %43

43:                                               ; preds = %42
  br label %44

44:                                               ; preds = %43
  br label %45

45:                                               ; preds = %44, %32
  %46 = load i32, ptr %1, align 4, !tbaa !8
  call void @llvm.lifetime.end.p0(i64 8, ptr %2) #6
  call void @llvm.lifetime.end.p0(i64 4, ptr %1) #6
  ret i32 %46
}